target datalayout = "e-m:e-p270:32:32-p271:32:32-p272:64:64-i64:64-i128:128-f80:128-n8:16:32:64-S128"
target triple = "x86_64-pc-linux-gnu"

%struct.Wln_Ret_t_ = type { ptr, %struct.Vec_Int_t_, %struct.Vec_Int_t_, %struct.Vec_Int_t_, %struct.Vec_Int_t_, %struct.Vec_Int_t_, %struct.Vec_Int_t_, %struct.Vec_Int_t_, %struct.Vec_Int_t_, %struct.Vec_Int_t_, %struct.Vec_Int_t_, i32, i32 }
%struct.Vec_Int_t_ = type { i32, i32, ptr }

; Function Attrs: nounwind uwtable
define void @Wln_RetFree(ptr noundef %0) #0 {
  %2 = alloca ptr, align 8
  store ptr %0, ptr %2, align 8, !tbaa !3
  %3 = load ptr, ptr %2, align 8, !tbaa !3
  %4 = getelementptr inbounds nuw %struct.Wln_Ret_t_, ptr %3, i32 0, i32 1
  %5 = getelementptr inbounds nuw %struct.Vec_Int_t_, ptr %4, i32 0, i32 2
  %6 = load ptr, ptr %5, align 8, !tbaa !63
  %7 = icmp ne ptr %6, null
  br i1 %7, label %8, label %16

8:                                                ; preds = %1
  %9 = load ptr, ptr %2, align 8, !tbaa !3
  %10 = getelementptr inbounds nuw %struct.Wln_Ret_t_, ptr %9, i32 0, i32 1
  %11 = getelementptr inbounds nuw %struct.Vec_Int_t_, ptr %10, i32 0, i32 2
  %12 = load ptr, ptr %11, align 8, !tbaa !63
  call void @free(ptr noundef %12) #11
  %13 = load ptr, ptr %2, align 8, !tbaa !3
  %14 = getelementptr inbounds nuw %struct.Wln_Ret_t_, ptr %13, i32 0, i32 1
  %15 = getelementptr inbounds nuw %struct.Vec_Int_t_, ptr %14, i32 0, i32 2
  store ptr null, ptr %15, align 8, !tbaa !63
  br label %17

16:                                               ; preds = %1
  br label %17

17:                                               ; preds = %16, %8
  %18 = load ptr, ptr %2, align 8, !tbaa !3
  %19 = getelementptr inbounds nuw %struct.Wln_Ret_t_, ptr %18, i32 0, i32 2
  %20 = getelementptr inbounds nuw %struct.Vec_Int_t_, ptr %19, i32 0, i32 2
  %21 = load ptr, ptr %20, align 8, !tbaa !64
  %22 = icmp ne ptr %21, null
  br i1 %22, label %23, label %31

23:                                               ; preds = %17
  %24 = load ptr, ptr %2, align 8, !tbaa !3
  %25 = getelementptr inbounds nuw %struct.Wln_Ret_t_, ptr %24, i32 0, i32 2
  %26 = getelementptr inbounds nuw %struct.Vec_Int_t_, ptr %25, i32 0, i32 2
  %27 = load ptr, ptr %26, align 8, !tbaa !64
  call void @free(ptr noundef %27) #11
  %28 = load ptr, ptr %2, align 8, !tbaa !3
  %29 = getelementptr inbounds nuw %struct.Wln_Ret_t_, ptr %28, i32 0, i32 2
  %30 = getelementptr inbounds nuw %struct.Vec_Int_t_, ptr %29, i32 0, i32 2
  store ptr null, ptr %30, align 8, !tbaa !64
  br label %32

31:                                               ; preds = %17
  br label %32

32:                                               ; preds = %31, %23
  %33 = load ptr, ptr %2, align 8, !tbaa !3
  %34 = getelementptr inbounds nuw %struct.Wln_Ret_t_, ptr %33, i32 0, i32 3
  %35 = getelementptr inbounds nuw %struct.Vec_Int_t_, ptr %34, i32 0, i32 2
  %36 = load ptr, ptr %35, align 8, !tbaa !65
  %37 = icmp ne ptr %36, null
  br i1 %37, label %38, label %46

38:                                               ; preds = %32
  %39 = load ptr, ptr %2, align 8, !tbaa !3
  %40 = getelementptr inbounds nuw %struct.Wln_Ret_t_, ptr %39, i32 0, i32 3
  %41 = getelementptr inbounds nuw %struct.Vec_Int_t_, ptr %40, i32 0, i32 2
  %42 = load ptr, ptr %41, align 8, !tbaa !65
  call void @free(ptr noundef %42) #11
  %43 = load ptr, ptr %2, align 8, !tbaa !3
  %44 = getelementptr inbounds nuw %struct.Wln_Ret_t_, ptr %43, i32 0, i32 3
  %45 = getelementptr inbounds nuw %struct.Vec_Int_t_, ptr %44, i32 0, i32 2
  store ptr null, ptr %45, align 8, !tbaa !65
  br label %47

46:                                               ; preds = %32
  br label %47

47:                                               ; preds = %46, %38
  %48 = load ptr, ptr %2, align 8, !tbaa !3
  %49 = getelementptr inbounds nuw %struct.Wln_Ret_t_, ptr %48, i32 0, i32 4
  %50 = getelementptr inbounds nuw %struct.Vec_Int_t_, ptr %49, i32 0, i32 2
  %51 = load ptr, ptr %50, align 8, !tbaa !66
  %52 = icmp ne ptr %51, null
  br i1 %52, label %53, label %61

53:                                               ; preds = %47
  %54 = load ptr, ptr %2, align 8, !tbaa !3
  %55 = getelementptr inbounds nuw %struct.Wln_Ret_t_, ptr %54, i32 0, i32 4
  %56 = getelementptr inbounds nuw %struct.Vec_Int_t_, ptr %55, i32 0, i32 2
  %57 = load ptr, ptr %56, align 8, !tbaa !66
  call void @free(ptr noundef %57) #11
  %58 = load ptr, ptr %2, align 8, !tbaa !3
  %59 = getelementptr inbounds nuw %struct.Wln_Ret_t_, ptr %58, i32 0, i32 4
  %60 = getelementptr inbounds nuw %struct.Vec_Int_t_, ptr %59, i32 0, i32 2
  store ptr null, ptr %60, align 8, !tbaa !66
  br label %62

61:                                               ; preds = %47
  br label %62

62:                                               ; preds = %61, %53
  %63 = load ptr, ptr %2, align 8, !tbaa !3
  %64 = getelementptr inbounds nuw %struct.Wln_Ret_t_, ptr %63, i32 0, i32 5
  %65 = getelementptr inbounds nuw %struct.Vec_Int_t_, ptr %64, i32 0, i32 2
  %66 = load ptr, ptr %65, align 8, !tbaa !67
  %67 = icmp ne ptr %66, null
  br i1 %67, label %68, label %76

68:                                               ; preds = %62
  %69 = load ptr, ptr %2, align 8, !tbaa !3
  %70 = getelementptr inbounds nuw %struct.Wln_Ret_t_, ptr %69, i32 0, i32 5
  %71 = getelementptr inbounds nuw %struct.Vec_Int_t_, ptr %70, i32 0, i32 2
  %72 = load ptr, ptr %71, align 8, !tbaa !67
  call void @free(ptr noundef %72) #11
  %73 = load ptr, ptr %2, align 8, !tbaa !3
  %74 = getelementptr inbounds nuw %struct.Wln_Ret_t_, ptr %73, i32 0, i32 5
  %75 = getelementptr inbounds nuw %struct.Vec_Int_t_, ptr %74, i32 0, i32 2
  store ptr null, ptr %75, align 8, !tbaa !67
  br label %77

76:                                               ; preds = %62
  br label %77

77:                                               ; preds = %76, %68
  %78 = load ptr, ptr %2, align 8, !tbaa !3
  %79 = getelementptr inbounds nuw %struct.Wln_Ret_t_, ptr %78, i32 0, i32 6
  %80 = getelementptr inbounds nuw %struct.Vec_Int_t_, ptr %79, i32 0, i32 2
  %81 = load ptr, ptr %80, align 8, !tbaa !68
  %82 = icmp ne ptr %81, null
  br i1 %82, label %83, label %91

83:                                               ; preds = %77
  %84 = load ptr, ptr %2, align 8, !tbaa !3
  %85 = getelementptr inbounds nuw %struct.Wln_Ret_t_, ptr %84, i32 0, i32 6
  %86 = getelementptr inbounds nuw %struct.Vec_Int_t_, ptr %85, i32 0, i32 2
  %87 = load ptr, ptr %86, align 8, !tbaa !68
  call void @free(ptr noundef %87) #11
  %88 = load ptr, ptr %2, align 8, !tbaa !3
  %89 = getelementptr inbounds nuw %struct.Wln_Ret_t_, ptr %88, i32 0, i32 6
  %90 = getelementptr inbounds nuw %struct.Vec_Int_t_, ptr %89, i32 0, i32 2
  store ptr null, ptr %90, align 8, !tbaa !68
  br label %92

91:                                               ; preds = %77
  br label %92

92:                                               ; preds = %91, %83
  %93 = load ptr, ptr %2, align 8, !tbaa !3
  %94 = getelementptr inbounds nuw %struct.Wln_Ret_t_, ptr %93, i32 0, i32 7
  %95 = getelementptr inbounds nuw %struct.Vec_Int_t_, ptr %94, i32 0, i32 2
  %96 = load ptr, ptr %95, align 8, !tbaa !69
  %97 = icmp ne ptr %96, null
  br i1 %97, label %98, label %106

98:                                               ; preds = %92
  %99 = load ptr, ptr %2, align 8, !tbaa !3
  %100 = getelementptr inbounds nuw %struct.Wln_Ret_t_, ptr %99, i32 0, i32 7
  %101 = getelementptr inbounds nuw %struct.Vec_Int_t_, ptr %100, i32 0, i32 2
  %102 = load ptr, ptr %101, align 8, !tbaa !69
  call void @free(ptr noundef %102) #11
  %103 = load ptr, ptr %2, align 8, !tbaa !3
  %104 = getelementptr inbounds nuw %struct.Wln_Ret_t_, ptr %103, i32 0, i32 7
  %105 = getelementptr inbounds nuw %struct.Vec_Int_t_, ptr %104, i32 0, i32 2
  store ptr null, ptr %105, align 8, !tbaa !69
  br label %107

106:                                              ; preds = %92
  br label %107

107:                                              ; preds = %106, %98
  %108 = load ptr, ptr %2, align 8, !tbaa !3
  %109 = getelementptr inbounds nuw %struct.Wln_Ret_t_, ptr %108, i32 0, i32 8
  %110 = getelementptr inbounds nuw %struct.Vec_Int_t_, ptr %109, i32 0, i32 2
  %111 = load ptr, ptr %110, align 8, !tbaa !70
  %112 = icmp ne ptr %111, null
  br i1 %112, label %113, label %121

113:                                              ; preds = %107
  %114 = load ptr, ptr %2, align 8, !tbaa !3
  %115 = getelementptr inbounds nuw %struct.Wln_Ret_t_, ptr %114, i32 0, i32 8
  %116 = getelementptr inbounds nuw %struct.Vec_Int_t_, ptr %115, i32 0, i32 2
  %117 = load ptr, ptr %116, align 8, !tbaa !70
  call void @free(ptr noundef %117) #11
  %118 = load ptr, ptr %2, align 8, !tbaa !3
  %119 = getelementptr inbounds nuw %struct.Wln_Ret_t_, ptr %118, i32 0, i32 8
  %120 = getelementptr inbounds nuw %struct.Vec_Int_t_, ptr %119, i32 0, i32 2
  store ptr null, ptr %120, align 8, !tbaa !70
  br label %122

121:                                              ; preds = %107
  br label %122

122:                                              ; preds = %121, %113
  %123 = load ptr, ptr %2, align 8, !tbaa !3
  %124 = getelementptr inbounds nuw %struct.Wln_Ret_t_, ptr %123, i32 0, i32 9
  %125 = getelementptr inbounds nuw %struct.Vec_Int_t_, ptr %124, i32 0, i32 2
  %126 = load ptr, ptr %125, align 8, !tbaa !71
  %127 = icmp ne ptr %126, null
  br i1 %127, label %128, label %136

128:                                              ; preds = %122
  %129 = load ptr, ptr %2, align 8, !tbaa !3
  %130 = getelementptr inbounds nuw %struct.Wln_Ret_t_, ptr %129, i32 0, i32 9
  %131 = getelementptr inbounds nuw %struct.Vec_Int_t_, ptr %130, i32 0, i32 2
  %132 = load ptr, ptr %131, align 8, !tbaa !71
  call void @free(ptr noundef %132) #11
  %133 = load ptr, ptr %2, align 8, !tbaa !3
  %134 = getelementptr inbounds nuw %struct.Wln_Ret_t_, ptr %133, i32 0, i32 9
  %135 = getelementptr inbounds nuw %struct.Vec_Int_t_, ptr %134, i32 0, i32 2
  store ptr null, ptr %135, align 8, !tbaa !71
  br label %137

136:                                              ; preds = %122
  br label %137

137:                                              ; preds = %136, %128
  %138 = load ptr, ptr %2, align 8, !tbaa !3
  %139 = getelementptr inbounds nuw %struct.Wln_Ret_t_, ptr %138, i32 0, i32 10
  %140 = getelementptr inbounds nuw %struct.Vec_Int_t_, ptr %139, i32 0, i32 2
  %141 = load ptr, ptr %140, align 8, !tbaa !72
  %142 = icmp ne ptr %141, null
  br i1 %142, label %143, label %151

143:                                              ; preds = %137
  %144 = load ptr, ptr %2, align 8, !tbaa !3
  %145 = getelementptr inbounds nuw %struct.Wln_Ret_t_, ptr %144, i32 0, i32 10
  %146 = getelementptr inbounds nuw %struct.Vec_Int_t_, ptr %145, i32 0, i32 2
  %147 = load ptr, ptr %146, align 8, !tbaa !72
  call void @free(ptr noundef %147) #11
  %148 = load ptr, ptr %2, align 8, !tbaa !3
  %149 = getelementptr inbounds nuw %struct.Wln_Ret_t_, ptr %148, i32 0, i32 10
  %150 = getelementptr inbounds nuw %struct.Vec_Int_t_, ptr %149, i32 0, i32 2
  store ptr null, ptr %150, align 8, !tbaa !72
  br label %152

151:                                              ; preds = %137
  br label %152

152:                                              ; preds = %151, %143
  %153 = load ptr, ptr %2, align 8, !tbaa !3
  %154 = icmp ne ptr %153, null
  br i1 %154, label %155, label %157

155:                                              ; preds = %152
  %156 = load ptr, ptr %2, align 8, !tbaa !3
  call void @free(ptr noundef %156) #11
  store ptr null, ptr %2, align 8, !tbaa !3
  br label %158

157:                                              ; preds = %152
  br label %158

158:                                              ; preds = %157, %155
  ret void
}